; ModuleID = 'source-C-CXX/46/1340.c'
source_filename = "source-C-CXX/46/1340.c"
target datalayout = "e-m:e-p270:32:32-p271:32:32-p272:64:64-i64:64-f80:128-n8:16:32:64-S128"
target triple = "x86_64-pc-linux-gnu"

@.str = private unnamed_addr constant [3 x i8] c"%d\00", align 1
@.str.1 = private unnamed_addr constant [4 x i8] c"%d \00", align 1

; Function Attrs: nofree nounwind sspstrong uwtable
define dso_local i32 @main(i32 %0, i8** nocapture readnone %1) local_unnamed_addr #0 {
  %3 = alloca i32, align 4
  %4 = alloca [100 x i32], align 16
  %5 = bitcast i32* %3 to i8*
  call void @llvm.lifetime.start.p0i8(i64 4, i8* nonnull %5) #3
  %6 = call i32 (i8*, ...) @__isoc99_scanf(i8* getelementptr inbounds ([3 x i8], [3 x i8]* @.str, i64 0, i64 0), i32* nonnull %3)
  %7 = bitcast [100 x i32]* %4 to i8*
  call void @llvm.lifetime.start.p0i8(i64 400, i8* nonnull %7) #3
  %8 = load i32, i32* %3, align 4, !tbaa !5
  %9 = icmp slt i32 %8, 1
  br i1 %9, label %39, label %17

10:                                               ; preds = %17
  %11 = getelementptr inbounds [100 x i32], [100 x i32]* %4, i64 0, i64 1
  %12 = icmp sgt i32 %26, 0
  br i1 %12, label %13, label %39

13:                                               ; preds = %10
  %14 = icmp eq i32 %26, 1
  br i1 %14, label %36, label %15

15:                                               ; preds = %13
  %16 = zext i32 %26 to i64
  br label %29

17:                                               ; preds = %2, %17
  %18 = phi i64 [ %25, %17 ], [ 1, %2 ]
  %19 = phi i32 [ %26, %17 ], [ %8, %2 ]
  %20 = sext i32 %19 to i64
  %21 = icmp slt i64 %18, %20
  %22 = getelementptr inbounds [100 x i32], [100 x i32]* %4, i64 0, i64 %18
  %23 = select i1 %21, i8* getelementptr inbounds ([4 x i8], [4 x i8]* @.str.1, i64 0, i64 0), i8* getelementptr inbounds ([3 x i8], [3 x i8]* @.str, i64 0, i64 0)
  %24 = call i32 (i8*, ...) @__isoc99_scanf(i8* %23, i32* nonnull %22)
  %25 = add nuw nsw i64 %18, 1
  %26 = load i32, i32* %3, align 4, !tbaa !5
  %27 = sext i32 %26 to i64
  %28 = icmp slt i64 %18, %27
  br i1 %28, label %17, label %10, !llvm.loop !9

29:                                               ; preds = %15, %29
  %30 = phi i64 [ %16, %15 ], [ %34, %29 ]
  %31 = getelementptr inbounds [100 x i32], [100 x i32]* %4, i64 0, i64 %30
  %32 = load i32, i32* %31, align 4, !tbaa !5
  %33 = call i32 (i8*, ...) @printf(i8* nonnull dereferenceable(1) getelementptr inbounds ([4 x i8], [4 x i8]* @.str.1, i64 0, i64 0), i32 %32)
  %34 = add nsw i64 %30, -1
  %35 = icmp eq i64 %34, 1
  br i1 %35, label %36, label %29

36:                                               ; preds = %29, %13
  %37 = load i32, i32* %11, align 4, !tbaa !5
  %38 = call i32 (i8*, ...) @printf(i8* nonnull dereferenceable(1) getelementptr inbounds ([3 x i8], [3 x i8]* @.str, i64 0, i64 0), i32 %37)
  br label %39

39:                                               ; preds = %2, %36, %10
  call void @llvm.lifetime.end.p0i8(i64 400, i8* nonnull %7) #3
  call void @llvm.lifetime.end.p0i8(i64 4, i8* nonnull %5) #3
  ret i32 0
}

; Function Attrs: argmemonly mustprogress nofree nosync nounwind willreturn
declare void @llvm.lifetime.start.p0i8(i64 immarg, i8* nocapture) #1

; Function Attrs: nofree nounwind
declare noundef i32 @__isoc99_scanf(i8* nocapture noundef readonly, ...) local_unnamed_addr #2

; Function Attrs: nofree nounwind
declare noundef i32 @printf(i8* nocapture noundef readonly, ...) local_unnamed_addr #2

; Function Attrs: argmemonly mustprogress nofree nosync nounwind willreturn
declare void @llvm.lifetime.end.p0i8(i64 immarg, i8* nocapture) #1


!llvm.module.flags = !{!0, !1, !2, !3}
!llvm.ident = !{!4}

!0 = !{i32 1, !"wchar_size", i32 4}
!1 = !{i32 7, !"PIC Level", i32 2}
!2 = !{i32 7, !"PIE Level", i32 2}
!3 = !{i32 7, !"uwtable", i32 1}
!4 = !{!"clang version 13.0.0"}
!5 = !{!6, !6, i64 0}
!6 = !{!"int", !7, i64 0}
!7 = !{!"omnipotent char", !8, i64 0}
!8 = !{!"Simple C/C++ TBAA"}
!9 = distinct !{!9, !10}
!10 = !{!"llvm.loop.mustprogress"}
